; Function Attrs: mustprogress nofree nounwind willreturn memory(read, inaccessiblemem: none) uwtable
define dso_local noundef zeroext i1 @_ZN4Luau31shouldTypestateForFirstArgumentERKNS_11AstExprCallE(ptr noundef nonnull readonly align 8 captures(none) dereferenceable(76) %0) local_unnamed_addr #12 {
  %2 = getelementptr inbounds nuw i8, ptr %0, i64 48
  %3 = load i64, ptr %2, align 8, !tbaa !332
  %4 = icmp eq i64 %3, 0
  br i1 %4, label %_ZN4Luau16matchTableFreezeERKNS_11AstExprCallE.exit, label %5

5:                                                ; preds = %1
  %6 = getelementptr inbounds nuw i8, ptr %0, i64 32
  %7 = load ptr, ptr %6, align 8, !tbaa !310
  %8 = getelementptr inbounds nuw i8, ptr %7, i64 8
  %9 = load i32, ptr %8, align 8, !tbaa !317
  %10 = load i32, ptr @_ZN4Luau7AstRttiINS_16AstExprIndexNameEE5valueE, align 4, !tbaa !4
  %11 = icmp ne i32 %9, %10
  %.not15.i = icmp eq ptr %7, null
  %.not.i = or i1 %.not15.i, %11
  br i1 %.not.i, label %_ZN4Luau16matchTableFreezeERKNS_11AstExprCallE.exit, label %12

12:                                               ; preds = %5
  %13 = getelementptr inbounds nuw i8, ptr %7, i64 40
  %14 = load ptr, ptr %13, align 8, !tbaa !571
  %.not.i.i = icmp eq ptr %14, null
  br i1 %.not.i.i, label %_ZN4Luau16matchTableFreezeERKNS_11AstExprCallE.exit, label %_ZNK4Luau7AstNameneEPKc.exit.i

_ZNK4Luau7AstNameneEPKc.exit.i:                   ; preds = %12
  %15 = tail call i32 @strcmp(ptr noundef nonnull dereferenceable(1) %14, ptr noundef nonnull dereferenceable(7) @.str.93) #34
  %.not16.i = icmp eq i32 %15, 0
  br i1 %.not16.i, label %16, label %_ZN4Luau16matchTableFreezeERKNS_11AstExprCallE.exit

16:                                               ; preds = %_ZNK4Luau7AstNameneEPKc.exit.i
  %17 = getelementptr inbounds nuw i8, ptr %7, i64 32
  %18 = load ptr, ptr %17, align 8, !tbaa !319
  %19 = getelementptr inbounds nuw i8, ptr %18, i64 8
  %20 = load i32, ptr %19, align 8, !tbaa !317
  %21 = load i32, ptr @_ZN4Luau7AstRttiINS_13AstExprGlobalEE5valueE, align 4, !tbaa !4
  %22 = icmp ne i32 %20, %21
  %.not1017.i = icmp eq ptr %18, null
  %.not10.i = or i1 %.not1017.i, %22
  br i1 %.not10.i, label %_ZN4Luau16matchTableFreezeERKNS_11AstExprCallE.exit, label %23

23:                                               ; preds = %16
  %24 = getelementptr inbounds nuw i8, ptr %18, i64 32
  %25 = load ptr, ptr %24, align 8, !tbaa !571
  %.not.i12.i = icmp eq ptr %25, null
  br i1 %.not.i12.i, label %_ZNK4Luau7AstNameneEPKc.exit13.thread.i, label %_ZNK4Luau7AstNameneEPKc.exit13.i

_ZNK4Luau7AstNameneEPKc.exit13.i:                 ; preds = %23
  %26 = tail call i32 @strcmp(ptr noundef nonnull dereferenceable(1) %25, ptr noundef nonnull dereferenceable(6) @.str.91) #34
  %.fr.i = freeze i32 %26
  %.not18.i = icmp eq i32 %.fr.i, 0
  br i1 %.not18.i, label %_ZN4Luau16matchTableFreezeERKNS_11AstExprCallE.exit, label %_ZNK4Luau7AstNameneEPKc.exit13.thread.i

_ZNK4Luau7AstNameneEPKc.exit13.thread.i:          ; preds = %_ZNK4Luau7AstNameneEPKc.exit13.i, %23
  br label %_ZN4Luau16matchTableFreezeERKNS_11AstExprCallE.exit

_ZN4Luau16matchTableFreezeERKNS_11AstExprCallE.exit: ; preds = %1, %5, %12, %_ZNK4Luau7AstNameneEPKc.exit.i, %16, %_ZNK4Luau7AstNameneEPKc.exit13.i, %_ZNK4Luau7AstNameneEPKc.exit13.thread.i
  %.0.i = phi i1 [ false, %1 ], [ false, %_ZNK4Luau7AstNameneEPKc.exit.i ], [ false, %5 ], [ false, %16 ], [ false, %_ZNK4Luau7AstNameneEPKc.exit13.thread.i ], [ true, %_ZNK4Luau7AstNameneEPKc.exit13.i ], [ false, %12 ]
  ret i1 %.0.i
}